target datalayout = "e-m:e-p270:32:32-p271:32:32-p272:64:64-i64:64-i128:128-f80:128-n8:16:32:64-S128"
target triple = "x86_64-pc-linux-gnu"

%struct.AVFilterPad = type { ptr, i32, i32, %union.anon, ptr, ptr, ptr }
%union.anon = type { ptr }
%union.anon.0 = type { ptr }

@.str = private unnamed_addr constant [10 x i8] c"anullsink\00", align 1
@.str.1 = private unnamed_addr constant [44 x i8] c"Do absolutely nothing with the input audio.\00", align 1
@avfilter_asink_anullsink_inputs = internal constant [1 x %struct.AVFilterPad] [%struct.AVFilterPad { ptr @.str.2, i32 1, i32 0, %union.anon zeroinitializer, ptr @null_filter_frame, ptr null, ptr null }], align 16
@ff_asink_anullsink = constant { { ptr, ptr, ptr, ptr, ptr, i32, [4 x i8] }, i8, i8, i8, [5 x i8], ptr, ptr, ptr, %union.anon.0, i32, i32, ptr, ptr } { { ptr, ptr, ptr, ptr, ptr, i32, [4 x i8] } { ptr @.str, ptr @.str.1, ptr @avfilter_asink_anullsink_inputs, ptr null, ptr null, i32 0, [4 x i8] zeroinitializer }, i8 1, i8 0, i8 0, [5 x i8] zeroinitializer, ptr null, ptr null, ptr null, %union.anon.0 zeroinitializer, i32 0, i32 0, ptr null, ptr null }, align 8
@.str.2 = private unnamed_addr constant [8 x i8] c"default\00", align 1

; Function Attrs: nounwind uwtable
define internal i32 @null_filter_frame(ptr noundef %0, ptr noundef %1) #0 {
  %3 = alloca ptr, align 8
  %4 = alloca ptr, align 8
  store ptr %0, ptr %3, align 8, !tbaa !4
  store ptr %1, ptr %4, align 8, !tbaa !9
  call void @av_frame_free(ptr noundef %4)
  ret i32 0
}

declare void @av_frame_free(ptr noundef) #1


!llvm.module.flags = !{!0, !1, !2, !3}

!0 = !{i32 1, !"wchar_size", i32 4}
!1 = !{i32 8, !"PIC Level", i32 2}
!2 = !{i32 7, !"uwtable", i32 2}
!3 = !{i32 1, !"override-stack-alignment", i32 16}
!4 = !{!5, !5, i64 0}
!5 = !{!"p1 _ZTS12AVFilterLink", !6, i64 0}
!6 = !{!"any pointer", !7, i64 0}
!7 = !{!"omnipotent char", !8, i64 0}
!8 = !{!"Simple C/C++ TBAA"}
!9 = !{!10, !10, i64 0}
!10 = !{!"p1 _ZTS7AVFrame", !6, i64 0}
